target datalayout = "e-m:e-p270:32:32-p271:32:32-p272:64:64-i64:64-i128:128-f80:128-n8:16:32:64-S128"
target triple = "x86_64-pc-linux-gnu"

%struct._object = type { %union.anon, ptr }
%union.anon = type { i64 }

@_Py_NoneStruct = external global %struct._object, align 8
@.str.80 = private unnamed_addr constant [39 x i8] c"../cpython/Modules/_testinternalcapi.c\00", align 1
@.str.251 = private unnamed_addr constant [17 x i8] c"PyErr_Occurred()\00", align 1
@__PRETTY_FUNCTION__.link_interpreter_refcount = private unnamed_addr constant [60 x i8] c"PyObject *link_interpreter_refcount(PyObject *, PyObject *)\00", align 1

; Function Attrs: nounwind uwtable
define internal ptr @link_interpreter_refcount(ptr noundef %0, ptr noundef %1) #0 {
  %3 = alloca ptr, align 8
  %4 = alloca ptr, align 8
  %5 = alloca ptr, align 8
  %6 = alloca ptr, align 8
  %7 = alloca i32, align 4
  store ptr %0, ptr %4, align 8, !tbaa !3
  store ptr %1, ptr %5, align 8, !tbaa !3
  call void @llvm.lifetime.start.p0(i64 8, ptr %6) #10
  %8 = load ptr, ptr %5, align 8, !tbaa !3
  %9 = call ptr @_PyInterpreterState_LookUpIDObject(ptr noundef %8)
  store ptr %9, ptr %6, align 8, !tbaa !49
  %10 = load ptr, ptr %6, align 8, !tbaa !49
  %11 = icmp eq ptr %10, null
  br i1 %11, label %12, label %19

12:                                               ; preds = %2
  %13 = call ptr @PyErr_Occurred()
  %14 = icmp ne ptr %13, null
  br i1 %14, label %15, label %16

15:                                               ; preds = %12
  br label %18

16:                                               ; preds = %12
  call void @__assert_fail(ptr noundef @.str.251, ptr noundef @.str.80, i32 noundef 1647, ptr noundef @__PRETTY_FUNCTION__.link_interpreter_refcount) #11
  unreachable

17:                                               ; No predecessors!
  br label %18

18:                                               ; preds = %17, %15
  store ptr null, ptr %3, align 8
  store i32 1, ptr %7, align 4
  br label %21

19:                                               ; preds = %2
  %20 = load ptr, ptr %6, align 8, !tbaa !49
  call void @_PyInterpreterState_RequireIDRef(ptr noundef %20, i32 noundef 1)
  store ptr @_Py_NoneStruct, ptr %3, align 8
  store i32 1, ptr %7, align 4
  br label %21

21:                                               ; preds = %19, %18
  call void @llvm.lifetime.end.p0(i64 8, ptr %6) #10
  %22 = load ptr, ptr %3, align 8
  ret ptr %22
}