; Function Attrs: nounwind uwtable
define internal noundef ptr @link_interpreter_refcount(ptr readnone captures(none) %0, ptr noundef %1) #0 {
  %3 = tail call ptr @_PyInterpreterState_LookUpIDObject(ptr noundef %1) #11
  %4 = icmp eq ptr %3, null
  br i1 %4, label %5, label %8

5:                                                ; preds = %2
  %6 = tail call ptr @PyErr_Occurred() #11
  %.not = icmp eq ptr %6, null
  br i1 %.not, label %7, label %9

7:                                                ; preds = %5
  tail call void @__assert_fail(ptr noundef nonnull @.str.251, ptr noundef nonnull @.str.80, i32 noundef 1647, ptr noundef nonnull @__PRETTY_FUNCTION__.link_interpreter_refcount) #12
  unreachable

8:                                                ; preds = %2
  tail call void @_PyInterpreterState_RequireIDRef(ptr noundef nonnull %3, i32 noundef 1) #11
  br label %9

9:                                                ; preds = %5, %8
  %.0 = phi ptr [ @_Py_NoneStruct, %8 ], [ null, %5 ]
  ret ptr %.0
}